; Function Attrs: mustprogress nofree norecurse nosync nounwind willreturn memory(read, inaccessiblemem: none) uwtable
define hidden noundef zeroext i1 @_ZNK23G1PageBasedVirtualSpace19is_area_uncommittedEmm(ptr nocapture noundef nonnull readonly align 8 dereferenceable(81) %0, i64 noundef %1, i64 noundef %2) local_unnamed_addr #5 align 2 {
  %4 = add i64 %2, %1
  %5 = icmp ugt i64 %4, %1
  br i1 %5, label %6, label %.loopexit.i.i

6:                                                ; preds = %3
  %7 = getelementptr inbounds i8, ptr %0, i64 32
  %8 = lshr i64 %1, 6
  %9 = load ptr, ptr %7, align 8
  %10 = getelementptr inbounds i64, ptr %9, i64 %8
  %11 = load i64, ptr %10, align 8
  %12 = and i64 %1, 63
  %13 = lshr i64 %11, %12
  %14 = and i64 %13, 1
  %.not.i.i = icmp eq i64 %14, 0
  br i1 %.not.i.i, label %15, label %_ZNK6BitMap18find_first_set_bitEmm.exit

15:                                               ; preds = %6
  %16 = icmp eq i64 %13, 0
  br i1 %16, label %17, label %28

17:                                               ; preds = %15
  %18 = add i64 %4, 63
  %19 = lshr i64 %18, 6
  br label %20

20:                                               ; preds = %23, %17
  %.025.i.i = phi i64 [ %8, %17 ], [ %21, %23 ]
  %21 = add nuw nsw i64 %.025.i.i, 1
  %22 = icmp ult i64 %21, %19
  br i1 %22, label %23, label %.loopexit.i.i

23:                                               ; preds = %20
  %24 = getelementptr inbounds i64, ptr %9, i64 %21
  %25 = load i64, ptr %24, align 8
  %.not36.i.i = icmp eq i64 %25, 0
  br i1 %.not36.i.i, label %20, label %26, !llvm.loop !8

26:                                               ; preds = %23
  %27 = shl i64 %21, 6
  br label %28

28:                                               ; preds = %26, %15
  %.1.ph.i.i = phi i64 [ %13, %15 ], [ %25, %26 ]
  %.026.ph.i.i = phi i64 [ %1, %15 ], [ %27, %26 ]
  %29 = tail call range(i64 0, 65) i64 @llvm.cttz.i64(i64 %.1.ph.i.i, i1 true)
  %30 = add i64 %.026.ph.i.i, %29
  %31 = icmp ult i64 %30, %4
  br i1 %31, label %_ZNK6BitMap18find_first_set_bitEmm.exit, label %.loopexit.i.i

.loopexit.i.i:                                    ; preds = %20, %28, %3
  br label %_ZNK6BitMap18find_first_set_bitEmm.exit

_ZNK6BitMap18find_first_set_bitEmm.exit:          ; preds = %6, %28, %.loopexit.i.i
  %.0.i.i = phi i64 [ %4, %.loopexit.i.i ], [ %1, %6 ], [ %30, %28 ]
  %32 = icmp uge i64 %.0.i.i, %4
  ret i1 %32
}